(lp0
S'poi'
p1
aS'fraction_to_poi'
p2
aS'salary'
p3
aS'deferral_payments'
p4
aS'total_payments'
p5
aS'bonus'
p6
aS'deferred_income'
p7
aS'total_stock_value'
p8
aS'expenses'
p9
aS'exercised_stock_options'
p10
aS'other'
p11
aS'long_term_incentive'
p12
aS'restricted_stock'
p13
a.