(lp0
S'poi'
p1
aS'fraction_from_poi'
p2
aS'fraction_to_poi'
p3
aS'salary'
p4
aS'deferral_payments'
p5
aS'total_payments'
p6
aS'bonus'
p7
aS'deferred_income'
p8
aS'total_stock_value'
p9
aS'expenses'
p10
aS'exercised_stock_options'
p11
aS'other'
p12
aS'long_term_incentive'
p13
aS'restricted_stock'
p14
a.